; Function Attrs: uwtable
define void @_ZTv0_n40_N8QuantLib8Swaption10deepUpdateEv(ptr noundef %this) unnamed_addr #12 align 2 {
entry:
  %vtable = load ptr, ptr %this, align 8, !tbaa !33
  %0 = getelementptr inbounds i8, ptr %vtable, i64 -40
  %1 = load i64, ptr %0, align 8
  %2 = getelementptr inbounds i8, ptr %this, i64 %1
  %swap_.i = getelementptr inbounds nuw i8, ptr %2, i64 136
  %3 = load ptr, ptr %swap_.i, align 8, !tbaa !52
  %cmp.not.i.i = icmp eq ptr %3, null
  br i1 %cmp.not.i.i, label %cond.false.i.i, label %_ZN8QuantLib8Swaption10deepUpdateEv.exit, !prof !74

cond.false.i.i:                                   ; preds = %entry
  tail call void @_ZN5boost16assertion_failedEPKcS1_S1_l(ptr noundef nonnull @.str.27, ptr noundef nonnull @__PRETTY_FUNCTION__._ZNK5boost10shared_ptrIN8QuantLib19FixedVsFloatingSwapEEptEv, ptr noundef nonnull @.str.28, i64 noundef 784)
  %.pre.i.i = load ptr, ptr %swap_.i, align 8, !tbaa !52
  br label %_ZN8QuantLib8Swaption10deepUpdateEv.exit

_ZN8QuantLib8Swaption10deepUpdateEv.exit:         ; preds = %entry, %cond.false.i.i
  %4 = phi ptr [ %3, %entry ], [ %.pre.i.i, %cond.false.i.i ]
  %vtable.i = load ptr, ptr %4, align 8, !tbaa !33
  %vfn.i = getelementptr inbounds i8, ptr %vtable.i, i64 72
  %5 = load ptr, ptr %vfn.i, align 8
  tail call void %5(ptr noundef nonnull align 8 dereferenceable(256) %4)
  %vtable2.i = load ptr, ptr %2, align 8, !tbaa !33
  %vfn3.i = getelementptr inbounds i8, ptr %vtable2.i, i64 16
  %6 = load ptr, ptr %vfn3.i, align 8
  tail call void %6(ptr noundef nonnull align 8 dereferenceable(12) %2)
  ret void
}